; ModuleID = '33/2762.c'
source_filename = "33/2762.c"
target datalayout = "e-m:e-p270:32:32-p271:32:32-p272:64:64-i64:64-f80:128-n8:16:32:64-S128"
target triple = "x86_64-pc-linux-gnu"

@.str = private unnamed_addr constant [4 x i8] c"%d\0A\00", align 1
@.str.1 = private unnamed_addr constant [3 x i8] c"%s\00", align 1
@.str.2 = private unnamed_addr constant [3 x i8] c"%c\00", align 1
@.str.3 = private unnamed_addr constant [4 x i8] c"%c\0A\00", align 1

; Function Attrs: noinline nounwind uwtable
define dso_local signext i8 @fy(i8 signext %0) #0 {
  %2 = alloca i8, align 1
  %3 = alloca i8, align 1
  store i8 %0, i8* %2, align 1
  %4 = load i8, i8* %2, align 1
  %5 = sext i8 %4 to i32
  switch i32 %5, label %10 [
    i32 84, label %6
    i32 65, label %7
    i32 71, label %8
    i32 67, label %9
  ]

6:                                                ; preds = %1
  store i8 65, i8* %3, align 1
  br label %11

7:                                                ; preds = %1
  store i8 84, i8* %3, align 1
  br label %11

8:                                                ; preds = %1
  store i8 67, i8* %3, align 1
  br label %11

9:                                                ; preds = %1
  store i8 71, i8* %3, align 1
  br label %11

10:                                               ; preds = %1
  store i8 0, i8* %3, align 1
  br label %11

11:                                               ; preds = %10, %9, %8, %7, %6
  %12 = load i8, i8* %3, align 1
  ret i8 %12
}

; Function Attrs: noinline nounwind uwtable
define dso_local i32 @main(i32 %0, i8** %1) #0 {
  %3 = alloca i32, align 4
  %4 = alloca i32, align 4
  %5 = alloca i8**, align 8
  %6 = alloca i8, align 1
  %7 = alloca [255 x i8], align 16
  %8 = alloca i32, align 4
  %9 = alloca i32, align 4
  %10 = alloca i32, align 4
  %11 = alloca i32, align 4
  store i32 0, i32* %3, align 4
  store i32 %0, i32* %4, align 4
  store i8** %1, i8*** %5, align 8
  %12 = bitcast [255 x i8]* %7 to i8*
  call void @llvm.memset.p0i8.i64(i8* align 16 %12, i8 0, i64 255, i1 false)
  %13 = call i32 (i8*, ...) @__isoc99_scanf(i8* getelementptr inbounds ([4 x i8], [4 x i8]* @.str, i64 0, i64 0), i32* %9)
  store i32 1, i32* %10, align 4
  br label %14

14:                                               ; preds = %74, %2
  %15 = load i32, i32* %10, align 4
  %16 = load i32, i32* %9, align 4
  %17 = icmp sle i32 %15, %16
  br i1 %17, label %18, label %77

18:                                               ; preds = %14
  store i32 0, i32* %8, align 4
  br label %19

19:                                               ; preds = %26, %18
  %20 = load i32, i32* %8, align 4
  %21 = icmp slt i32 %20, 255
  br i1 %21, label %22, label %29

22:                                               ; preds = %19
  %23 = load i32, i32* %8, align 4
  %24 = sext i32 %23 to i64
  %25 = getelementptr inbounds [255 x i8], [255 x i8]* %7, i64 0, i64 %24
  store i8 0, i8* %25, align 1
  br label %26

26:                                               ; preds = %22
  %27 = load i32, i32* %8, align 4
  %28 = add nsw i32 %27, 1
  store i32 %28, i32* %8, align 4
  br label %19

29:                                               ; preds = %19
  %30 = getelementptr inbounds [255 x i8], [255 x i8]* %7, i64 0, i64 0
  %31 = call i32 (i8*, ...) @__isoc99_scanf(i8* getelementptr inbounds ([3 x i8], [3 x i8]* @.str.1, i64 0, i64 0), i8* %30)
  store i32 254, i32* %8, align 4
  br label %32

32:                                               ; preds = %45, %29
  %33 = load i32, i32* %8, align 4
  %34 = icmp sge i32 %33, 0
  br i1 %34, label %35, label %48

35:                                               ; preds = %32
  %36 = load i32, i32* %8, align 4
  %37 = sext i32 %36 to i64
  %38 = getelementptr inbounds [255 x i8], [255 x i8]* %7, i64 0, i64 %37
  %39 = load i8, i8* %38, align 1
  %40 = sext i8 %39 to i32
  %41 = icmp ne i32 %40, 0
  br i1 %41, label %42, label %44

42:                                               ; preds = %35
  %43 = load i32, i32* %8, align 4
  store i32 %43, i32* %11, align 4
  br label %48

44:                                               ; preds = %35
  br label %45

45:                                               ; preds = %44
  %46 = load i32, i32* %8, align 4
  %47 = add nsw i32 %46, -1
  store i32 %47, i32* %8, align 4
  br label %32

48:                                               ; preds = %42, %32
  store i32 0, i32* %8, align 4
  br label %49

49:                                               ; preds = %62, %48
  %50 = load i32, i32* %8, align 4
  %51 = load i32, i32* %11, align 4
  %52 = icmp slt i32 %50, %51
  br i1 %52, label %53, label %65

53:                                               ; preds = %49
  %54 = load i32, i32* %8, align 4
  %55 = sext i32 %54 to i64
  %56 = getelementptr inbounds [255 x i8], [255 x i8]* %7, i64 0, i64 %55
  %57 = load i8, i8* %56, align 1
  %58 = call signext i8 @fy(i8 signext %57)
  store i8 %58, i8* %6, align 1
  %59 = load i8, i8* %6, align 1
  %60 = sext i8 %59 to i32
  %61 = call i32 (i8*, ...) @printf(i8* getelementptr inbounds ([3 x i8], [3 x i8]* @.str.2, i64 0, i64 0), i32 %60)
  br label %62

62:                                               ; preds = %53
  %63 = load i32, i32* %8, align 4
  %64 = add nsw i32 %63, 1
  store i32 %64, i32* %8, align 4
  br label %49

65:                                               ; preds = %49
  %66 = load i32, i32* %11, align 4
  %67 = sext i32 %66 to i64
  %68 = getelementptr inbounds [255 x i8], [255 x i8]* %7, i64 0, i64 %67
  %69 = load i8, i8* %68, align 1
  %70 = call signext i8 @fy(i8 signext %69)
  store i8 %70, i8* %6, align 1
  %71 = load i8, i8* %6, align 1
  %72 = sext i8 %71 to i32
  %73 = call i32 (i8*, ...) @printf(i8* getelementptr inbounds ([4 x i8], [4 x i8]* @.str.3, i64 0, i64 0), i32 %72)
  br label %74

74:                                               ; preds = %65
  %75 = load i32, i32* %10, align 4
  %76 = add nsw i32 %75, 1
  store i32 %76, i32* %10, align 4
  br label %14

77:                                               ; preds = %14
  ret i32 0
}

; Function Attrs: argmemonly nounwind willreturn
declare void @llvm.memset.p0i8.i64(i8* nocapture writeonly, i8, i64, i1 immarg) #1

declare dso_local i32 @__isoc99_scanf(i8*, ...) #2

declare dso_local i32 @printf(i8*, ...) #2


!llvm.module.flags = !{!0}
!llvm.ident = !{!1}

!0 = !{i32 1, !"wchar_size", i32 4}
!1 = !{!"clang version 10.0.0-4ubuntu1 "}
